; Function Attrs: nounwind uwtable
define internal noundef i32 @cipher_hw_cast5_ecb_cipher(ptr noundef %0, ptr noundef %1, ptr noundef %2, i64 noundef %3) #1 {
  %5 = getelementptr inbounds nuw i8, ptr %0, i64 88
  %6 = load i64, ptr %5, align 8, !tbaa !5
  %7 = getelementptr inbounds nuw i8, ptr %0, i64 192
  %8 = icmp ult i64 %3, %6
  br i1 %8, label %.loopexit, label %9

9:                                                ; preds = %4
  %10 = sub nuw i64 %3, %6
  %11 = getelementptr inbounds nuw i8, ptr %0, i64 108
  br label %12

12:                                               ; preds = %9, %12
  %.01618 = phi i64 [ 0, %9 ], [ %19, %12 ]
  %13 = getelementptr inbounds nuw i8, ptr %2, i64 %.01618
  %14 = getelementptr inbounds nuw i8, ptr %1, i64 %.01618
  %15 = load i8, ptr %11, align 4
  %16 = lshr i8 %15, 1
  %17 = and i8 %16, 1
  %18 = zext nneg i8 %17 to i32
  tail call void @CAST_ecb_encrypt(ptr noundef %13, ptr noundef %14, ptr noundef nonnull %7, i32 noundef %18) #5
  %19 = add i64 %.01618, %6
  %.not = icmp ugt i64 %19, %10
  br i1 %.not, label %.loopexit, label %12, !llvm.loop !15

.loopexit:                                        ; preds = %12, %4
  ret i32 1
}